; ModuleID = '53/704.c'
source_filename = "53/704.c"
target datalayout = "e-m:e-p270:32:32-p271:32:32-p272:64:64-i64:64-f80:128-n8:16:32:64-S128"
target triple = "x86_64-pc-linux-gnu"

@.str = private unnamed_addr constant [3 x i8] c"%d\00", align 1
@.str.1 = private unnamed_addr constant [4 x i8] c",%d\00", align 1

; Function Attrs: noinline nounwind uwtable
define dso_local i32 @main() #0 {
  %1 = alloca i32, align 4
  %2 = alloca i32, align 4
  %3 = alloca [300 x i32], align 16
  %4 = alloca i32, align 4
  %5 = alloca i32, align 4
  store i32 0, i32* %1, align 4
  %6 = call i32 (i8*, ...) @__isoc99_scanf(i8* getelementptr inbounds ([3 x i8], [3 x i8]* @.str, i64 0, i64 0), i32* %2)
  store i32 0, i32* %4, align 4
  br label %7

7:                                                ; preds = %16, %0
  %8 = load i32, i32* %4, align 4
  %9 = load i32, i32* %2, align 4
  %10 = icmp slt i32 %8, %9
  br i1 %10, label %11, label %19

11:                                               ; preds = %7
  %12 = load i32, i32* %4, align 4
  %13 = sext i32 %12 to i64
  %14 = getelementptr inbounds [300 x i32], [300 x i32]* %3, i64 0, i64 %13
  %15 = call i32 (i8*, ...) @__isoc99_scanf(i8* getelementptr inbounds ([3 x i8], [3 x i8]* @.str, i64 0, i64 0), i32* %14)
  br label %16

16:                                               ; preds = %11
  %17 = load i32, i32* %4, align 4
  %18 = add nsw i32 %17, 1
  store i32 %18, i32* %4, align 4
  br label %7

19:                                               ; preds = %7
  %20 = getelementptr inbounds [300 x i32], [300 x i32]* %3, i64 0, i64 0
  %21 = load i32, i32* %20, align 16
  %22 = call i32 (i8*, ...) @printf(i8* getelementptr inbounds ([3 x i8], [3 x i8]* @.str, i64 0, i64 0), i32 %21)
  store i32 1, i32* %4, align 4
  br label %23

23:                                               ; preds = %60, %19
  %24 = load i32, i32* %4, align 4
  %25 = load i32, i32* %2, align 4
  %26 = sub nsw i32 %25, 1
  %27 = icmp slt i32 %24, %26
  br i1 %27, label %28, label %63

28:                                               ; preds = %23
  store i32 0, i32* %5, align 4
  br label %29

29:                                               ; preds = %56, %28
  %30 = load i32, i32* %5, align 4
  %31 = load i32, i32* %4, align 4
  %32 = icmp slt i32 %30, %31
  br i1 %32, label %33, label %59

33:                                               ; preds = %29
  %34 = load i32, i32* %5, align 4
  %35 = sext i32 %34 to i64
  %36 = getelementptr inbounds [300 x i32], [300 x i32]* %3, i64 0, i64 %35
  %37 = load i32, i32* %36, align 4
  %38 = load i32, i32* %4, align 4
  %39 = sext i32 %38 to i64
  %40 = getelementptr inbounds [300 x i32], [300 x i32]* %3, i64 0, i64 %39
  %41 = load i32, i32* %40, align 4
  %42 = icmp eq i32 %37, %41
  br i1 %42, label %43, label %44

43:                                               ; preds = %33
  br label %59

44:                                               ; preds = %33
  %45 = load i32, i32* %5, align 4
  %46 = load i32, i32* %4, align 4
  %47 = sub nsw i32 %46, 1
  %48 = icmp eq i32 %45, %47
  br i1 %48, label %49, label %55

49:                                               ; preds = %44
  %50 = load i32, i32* %4, align 4
  %51 = sext i32 %50 to i64
  %52 = getelementptr inbounds [300 x i32], [300 x i32]* %3, i64 0, i64 %51
  %53 = load i32, i32* %52, align 4
  %54 = call i32 (i8*, ...) @printf(i8* getelementptr inbounds ([4 x i8], [4 x i8]* @.str.1, i64 0, i64 0), i32 %53)
  br label %55

55:                                               ; preds = %49, %44
  br label %56

56:                                               ; preds = %55
  %57 = load i32, i32* %5, align 4
  %58 = add nsw i32 %57, 1
  store i32 %58, i32* %5, align 4
  br label %29

59:                                               ; preds = %43, %29
  br label %60

60:                                               ; preds = %59
  %61 = load i32, i32* %4, align 4
  %62 = add nsw i32 %61, 1
  store i32 %62, i32* %4, align 4
  br label %23

63:                                               ; preds = %23
  store i32 0, i32* %5, align 4
  br label %64

64:                                               ; preds = %94, %63
  %65 = load i32, i32* %5, align 4
  %66 = load i32, i32* %2, align 4
  %67 = sub nsw i32 %66, 1
  %68 = icmp slt i32 %65, %67
  br i1 %68, label %69, label %97

69:                                               ; preds = %64
  %70 = load i32, i32* %5, align 4
  %71 = sext i32 %70 to i64
  %72 = getelementptr inbounds [300 x i32], [300 x i32]* %3, i64 0, i64 %71
  %73 = load i32, i32* %72, align 4
  %74 = load i32, i32* %2, align 4
  %75 = sub nsw i32 %74, 1
  %76 = sext i32 %75 to i64
  %77 = getelementptr inbounds [300 x i32], [300 x i32]* %3, i64 0, i64 %76
  %78 = load i32, i32* %77, align 4
  %79 = icmp eq i32 %73, %78
  br i1 %79, label %80, label %81

80:                                               ; preds = %69
  br label %97

81:                                               ; preds = %69
  %82 = load i32, i32* %5, align 4
  %83 = load i32, i32* %2, align 4
  %84 = sub nsw i32 %83, 2
  %85 = icmp eq i32 %82, %84
  br i1 %85, label %86, label %93

86:                                               ; preds = %81
  %87 = load i32, i32* %2, align 4
  %88 = sub nsw i32 %87, 1
  %89 = sext i32 %88 to i64
  %90 = getelementptr inbounds [300 x i32], [300 x i32]* %3, i64 0, i64 %89
  %91 = load i32, i32* %90, align 4
  %92 = call i32 (i8*, ...) @printf(i8* getelementptr inbounds ([4 x i8], [4 x i8]* @.str.1, i64 0, i64 0), i32 %91)
  br label %93

93:                                               ; preds = %86, %81
  br label %94

94:                                               ; preds = %93
  %95 = load i32, i32* %5, align 4
  %96 = add nsw i32 %95, 1
  store i32 %96, i32* %5, align 4
  br label %64

97:                                               ; preds = %80, %64
  ret i32 0
}

declare dso_local i32 @__isoc99_scanf(i8*, ...) #1

declare dso_local i32 @printf(i8*, ...) #1


!llvm.module.flags = !{!0}
!llvm.ident = !{!1}

!0 = !{i32 1, !"wchar_size", i32 4}
!1 = !{!"clang version 10.0.0-4ubuntu1 "}
